target datalayout = "e-m:e-p270:32:32-p271:32:32-p272:64:64-i64:64-i128:128-f80:128-n8:16:32:64-S128"
target triple = "x86_64-pc-linux-gnu"

%struct._e_addr_resolve = type { i8, i8, i8, i8, i8, i8, i8, i8, i8 }
%struct.hashmanuf = type { i8, [3 x i8], [9 x i8], [64 x i8], [64 x i8] }

@gbl_resolv_flags = global %struct._e_addr_resolve { i8 1, i8 0, i8 0, i8 1, i8 0, i8 1, i8 0, i8 0, i8 1 }, align 1

; Function Attrs: null_pointer_is_valid sspstrong uwtable
define hidden ptr @get_manuf_name(ptr noundef %0, i64 noundef %1) #3 {
  %3 = alloca ptr, align 8
  %4 = alloca ptr, align 8
  %5 = alloca i64, align 8
  %6 = alloca ptr, align 8
  %7 = alloca i32, align 4
  store ptr %0, ptr %4, align 8
  store i64 %1, ptr %5, align 8
  call void @llvm.lifetime.start.p0(i64 8, ptr %6) #16
  br label %8

8:                                                ; preds = %2
  br label %9

9:                                                ; preds = %8
  br label %10

10:                                               ; preds = %9
  %11 = load ptr, ptr %4, align 8
  %12 = load i64, ptr %5, align 8
  %13 = call ptr @manuf_name_lookup(ptr noundef %11, i64 noundef %12)
  store ptr %13, ptr %6, align 8
  %14 = load i8, ptr @gbl_resolv_flags, align 1, !range !8, !noundef !9
  %15 = trunc i8 %14 to i1
  br i1 %15, label %16, label %27

16:                                               ; preds = %10
  %17 = load ptr, ptr %6, align 8
  %18 = getelementptr inbounds nuw %struct.hashmanuf, ptr %17, i32 0, i32 0
  %19 = load i8, ptr %18, align 1
  %20 = zext i8 %19 to i32
  %21 = and i32 %20, 2
  %22 = icmp eq i32 %21, 2
  br i1 %22, label %23, label %27

23:                                               ; preds = %16
  %24 = load ptr, ptr %6, align 8
  %25 = getelementptr inbounds nuw %struct.hashmanuf, ptr %24, i32 0, i32 3
  %26 = getelementptr inbounds [64 x i8], ptr %25, i64 0, i64 0
  store ptr %26, ptr %3, align 8
  store i32 1, ptr %7, align 4
  br label %31

27:                                               ; preds = %16, %10
  %28 = load ptr, ptr %6, align 8
  %29 = getelementptr inbounds nuw %struct.hashmanuf, ptr %28, i32 0, i32 2
  %30 = getelementptr inbounds [9 x i8], ptr %29, i64 0, i64 0
  store ptr %30, ptr %3, align 8
  store i32 1, ptr %7, align 4
  br label %31

31:                                               ; preds = %27, %23
  call void @llvm.lifetime.end.p0(i64 8, ptr %6) #16
  %32 = load ptr, ptr %3, align 8
  ret ptr %32
}

; Function Attrs: null_pointer_is_valid sspstrong uwtable
define ptr @tvb_get_manuf_name(ptr noundef %0, i32 noundef %1) #3 {
  %3 = alloca ptr, align 8
  %4 = alloca i32, align 4
  %5 = alloca [3 x i8], align 1
  store ptr %0, ptr %3, align 8
  store i32 %1, ptr %4, align 4
  call void @llvm.lifetime.start.p0(i64 3, ptr %5) #16
  call void @llvm.memset.p0.i64(ptr align 1 %5, i8 0, i64 3, i1 false)
  %6 = load ptr, ptr %3, align 8
  %7 = getelementptr inbounds [3 x i8], ptr %5, i64 0, i64 0
  %8 = load i32, ptr %4, align 4
  %9 = call ptr @tvb_memcpy(ptr noundef %6, ptr noundef %7, i32 noundef %8, i64 noundef 3)
  %10 = getelementptr inbounds [3 x i8], ptr %5, i64 0, i64 0
  %11 = call ptr @get_manuf_name(ptr noundef %10, i64 noundef 3)
  call void @llvm.lifetime.end.p0(i64 3, ptr %5) #16
  ret ptr %11
}