; Function Attrs: null_pointer_is_valid sspstrong uwtable
define nonnull ptr @tvb_get_manuf_name(ptr noundef %0, i32 noundef %1) local_unnamed_addr #3 {
  %3 = alloca [3 x i8], align 1
  call void @llvm.lifetime.start.p0(i64 3, ptr nonnull %3) #24
  call void @llvm.memset.p0.i64(ptr noundef nonnull align 1 dereferenceable(3) %3, i8 0, i64 3, i1 false)
  %4 = call ptr @tvb_memcpy(ptr noundef %0, ptr noundef nonnull %3, i32 noundef %1, i64 noundef 3)
  %5 = call fastcc ptr @manuf_name_lookup(ptr noundef nonnull %3)
  %6 = load i8, ptr @gbl_resolv_flags, align 1, !range !16, !noundef !17
  %7 = trunc nuw i8 %6 to i1
  br i1 %7, label %8, label %11

8:                                                ; preds = %2
  %9 = load i8, ptr %5, align 1
  %10 = and i8 %9, 2
  %.not.i = icmp eq i8 %10, 0
  br i1 %.not.i, label %11, label %get_manuf_name.exit

11:                                               ; preds = %8, %2
  br label %get_manuf_name.exit

get_manuf_name.exit:                              ; preds = %8, %11
  %.sink.i = phi i64 [ 4, %11 ], [ 13, %8 ]
  %12 = getelementptr inbounds nuw i8, ptr %5, i64 %.sink.i
  call void @llvm.lifetime.end.p0(i64 3, ptr nonnull %3) #24
  ret ptr %12
}